target datalayout = "e-m:e-p270:32:32-p271:32:32-p272:64:64-i64:64-i128:128-f80:128-n8:16:32:64-S128"
target triple = "x86_64-pc-linux-gnu"

@MaxHeapSize = external global i64, align 8
@.str.30 = private unnamed_addr constant [131 x i8] c"Desired lifetime of SoftReferences cannot be expressed correctly. MaxHeapSize (%lu) or SoftRefLRUPolicyMSPerMB (%ld) is too large\0A\00", align 1

; Function Attrs: mustprogress nounwind uwtable
define internal noundef i32 @_ZL42CheckMaxHeapSizeAndSoftRefLRUPolicyMSPerMBmlb(i64 noundef %0, i64 noundef %1, i1 noundef zeroext %2) #1 {
  %4 = alloca i32, align 4
  %5 = alloca i64, align 8
  %6 = alloca i64, align 8
  %7 = alloca i8, align 1
  store i64 %0, ptr %5, align 8
  store i64 %1, ptr %6, align 8
  %8 = zext i1 %2 to i8
  store i8 %8, ptr %7, align 1
  %9 = load i64, ptr %6, align 8
  %10 = icmp sgt i64 %9, 0
  br i1 %10, label %11, label %22

11:                                               ; preds = %3
  %12 = load i64, ptr %5, align 8
  %13 = udiv i64 %12, 1048576
  %14 = load i64, ptr %6, align 8
  %15 = udiv i64 -1, %14
  %16 = icmp ugt i64 %13, %15
  br i1 %16, label %17, label %22

17:                                               ; preds = %11
  %18 = load i8, ptr %7, align 1
  %19 = trunc i8 %18 to i1
  %20 = load i64, ptr %5, align 8
  %21 = load i64, ptr %6, align 8
  call void (i1, ptr, ...) @_ZN7JVMFlag10printErrorEbPKcz(i1 noundef zeroext %19, ptr noundef @.str.30, i64 noundef %20, i64 noundef %21)
  store i32 6, ptr %4, align 4
  br label %23

22:                                               ; preds = %11, %3
  store i32 0, ptr %4, align 4
  br label %23

23:                                               ; preds = %22, %17
  %24 = load i32, ptr %4, align 4
  ret i32 %24
}

; Function Attrs: mustprogress nounwind uwtable
define hidden noundef i32 @_Z37SoftRefLRUPolicyMSPerMBConstraintFunclb(i64 noundef %0, i1 noundef zeroext %1) #1 {
  %3 = alloca i64, align 8
  %4 = alloca i8, align 1
  store i64 %0, ptr %3, align 8
  %5 = zext i1 %1 to i8
  store i8 %5, ptr %4, align 1
  %6 = load i64, ptr @MaxHeapSize, align 8
  %7 = load i64, ptr %3, align 8
  %8 = load i8, ptr %4, align 1
  %9 = trunc i8 %8 to i1
  %10 = call noundef i32 @_ZL42CheckMaxHeapSizeAndSoftRefLRUPolicyMSPerMBmlb(i64 noundef %6, i64 noundef %7, i1 noundef zeroext %9)
  ret i32 %10
}