; Function Attrs: mustprogress nounwind uwtable
define hidden noundef range(i32 0, 7) i32 @_Z37SoftRefLRUPolicyMSPerMBConstraintFunclb(i64 noundef %0, i1 noundef zeroext %1) local_unnamed_addr #0 {
  %3 = load i64, ptr @MaxHeapSize, align 8
  %4 = icmp sgt i64 %0, 0
  br i1 %4, label %5, label %_ZL42CheckMaxHeapSizeAndSoftRefLRUPolicyMSPerMBmlb.exit

5:                                                ; preds = %2
  %6 = lshr i64 %3, 20
  %mul.i = tail call { i64, i1 } @llvm.umul.with.overflow.i64(i64 %0, i64 %6)
  %mul.ov.i = extractvalue { i64, i1 } %mul.i, 1
  br i1 %mul.ov.i, label %7, label %_ZL42CheckMaxHeapSizeAndSoftRefLRUPolicyMSPerMBmlb.exit

7:                                                ; preds = %5
  tail call void (i1, ptr, ...) @_ZN7JVMFlag10printErrorEbPKcz(i1 noundef zeroext %1, ptr noundef nonnull @.str.30, i64 noundef %3, i64 noundef %0) #4
  br label %_ZL42CheckMaxHeapSizeAndSoftRefLRUPolicyMSPerMBmlb.exit

_ZL42CheckMaxHeapSizeAndSoftRefLRUPolicyMSPerMBmlb.exit: ; preds = %2, %5, %7
  %.0.i = phi i32 [ 6, %7 ], [ 0, %5 ], [ 0, %2 ]
  ret i32 %.0.i
}